target datalayout = "e-m:e-p270:32:32-p271:32:32-p272:64:64-i64:64-i128:128-f80:128-n8:16:32:64-S128"
target triple = "x86_64-pc-linux-gnu"

%struct.lua_State = type { %struct.GCRef, i8, i8, i8, i8, %struct.MRef, %struct.GCRef, ptr, ptr, %struct.MRef, %struct.MRef, %struct.GCRef, %struct.GCRef, ptr, i32 }
%struct.MRef = type { i64 }
%struct.GCRef = type { i64 }
%union.TValue = type { i64 }
%struct.SBufExt = type { ptr, ptr, ptr, %struct.MRef, %union.anon.2, ptr, %struct.GCRef, %struct.GCRef, i32 }
%union.anon.2 = type { %struct.GCRef }
%struct.GCstr = type { %struct.GCRef, i8, i8, i8, i8, i32, i32, i32 }
%struct.GCudata = type { %struct.GCRef, i8, i8, i8, i8, %struct.GCRef, i32, %struct.GCRef, i32 }
%struct.global_State = type { ptr, ptr, %struct.GCState, %struct.GCstr, i8, i8, i8, i8, %struct.StrInternState, i32, %struct.GCRef, %struct.SBuf, %union.TValue, %union.TValue, %struct.Node, %union.TValue, %struct.GCupval, i32, i32, ptr, ptr, ptr, i32, i32, %struct.GCRef, %struct.MRef, %struct.MRef, %struct.PRNGState, [39 x %struct.GCRef] }
%struct.GCState = type { i64, i64, i8, i8, i8, i8, i32, %struct.GCRef, %struct.MRef, %struct.GCRef, %struct.GCRef, %struct.GCRef, %struct.GCRef, i64, i64, i32, i32, %struct.MRef }
%struct.StrInternState = type { ptr, i32, i32, i32, i8, i8, i8, i8, i64 }
%struct.SBuf = type { ptr, ptr, ptr, %struct.MRef }
%struct.Node = type { %union.TValue, %union.TValue, %struct.MRef }
%struct.GCupval = type { %struct.GCRef, i8, i8, i8, i8, %union.anon, %struct.MRef, i32 }
%union.anon = type { %struct.anon.1 }
%struct.anon.1 = type { %struct.GCRef, %struct.GCRef }
%struct.PRNGState = type { [4 x i64] }
%struct.GCfuncC = type { %struct.GCRef, i8, i8, i8, i8, %struct.GCRef, %struct.GCRef, %struct.MRef, ptr, [1 x %union.TValue] }

@.str.5 = private unnamed_addr constant [24 x i8] c"store to dead GC object\00", align 1
@.str.7 = private unnamed_addr constant [5 x i8] c"dict\00", align 1
@.str.8 = private unnamed_addr constant [10 x i8] c"metatable\00", align 1

; Function Attrs: alwaysinline nounwind uwtable
define internal void @checklivetv(ptr noundef %0, ptr noundef %1, ptr noundef %2) #3 {
  %4 = alloca ptr, align 8
  %5 = alloca ptr, align 8
  %6 = alloca ptr, align 8
  store ptr %0, ptr %4, align 8, !tbaa !4
  store ptr %1, ptr %5, align 8, !tbaa !38
  store ptr %2, ptr %6, align 8, !tbaa !31
  ret void
}

; Function Attrs: alwaysinline nounwind uwtable
define internal void @setgcVraw(ptr noundef %0, ptr noundef %1, i32 noundef %2) #3 {
  %4 = alloca ptr, align 8
  %5 = alloca ptr, align 8
  %6 = alloca i32, align 4
  store ptr %0, ptr %4, align 8, !tbaa !38
  store ptr %1, ptr %5, align 8, !tbaa !34
  store i32 %2, ptr %6, align 4, !tbaa !19
  %7 = load ptr, ptr %5, align 8, !tbaa !34
  %8 = ptrtoint ptr %7 to i64
  %9 = load i32, ptr %6, align 4, !tbaa !19
  %10 = zext i32 %9 to i64
  %11 = shl i64 %10, 47
  %12 = or i64 %8, %11
  %13 = load ptr, ptr %4, align 8, !tbaa !38
  %14 = getelementptr inbounds nuw %struct.GCRef, ptr %13, i32 0, i32 0
  store i64 %12, ptr %14, align 8, !tbaa !26
  ret void
}

; Function Attrs: alwaysinline nounwind uwtable
define internal void @setgcV(ptr noundef %0, ptr noundef %1, ptr noundef %2, i32 noundef %3) #3 {
  %5 = alloca ptr, align 8
  %6 = alloca ptr, align 8
  %7 = alloca ptr, align 8
  %8 = alloca i32, align 4
  store ptr %0, ptr %5, align 8, !tbaa !4
  store ptr %1, ptr %6, align 8, !tbaa !38
  store ptr %2, ptr %7, align 8, !tbaa !34
  store i32 %3, ptr %8, align 4, !tbaa !19
  %9 = load ptr, ptr %6, align 8, !tbaa !38
  %10 = load ptr, ptr %7, align 8, !tbaa !34
  %11 = load i32, ptr %8, align 4, !tbaa !19
  call void @setgcVraw(ptr noundef %9, ptr noundef %10, i32 noundef %11)
  %12 = load ptr, ptr %5, align 8, !tbaa !4
  %13 = load ptr, ptr %6, align 8, !tbaa !38
  call void @checklivetv(ptr noundef %12, ptr noundef %13, ptr noundef @.str.5)
  ret void
}

; Function Attrs: alwaysinline nounwind uwtable
define internal void @lj_bufx_init(ptr noundef %0, ptr noundef %1) #3 {
  %3 = alloca ptr, align 8
  %4 = alloca ptr, align 8
  store ptr %0, ptr %3, align 8, !tbaa !4
  store ptr %1, ptr %4, align 8, !tbaa !9
  %5 = load ptr, ptr %4, align 8, !tbaa !9
  call void @llvm.memset.p0.i64(ptr align 8 %5, i8 0, i64 72, i1 false)
  %6 = load ptr, ptr %3, align 8, !tbaa !4
  %7 = ptrtoint ptr %6 to i64
  %8 = add i64 %7, 1
  %9 = load ptr, ptr %4, align 8, !tbaa !9
  %10 = getelementptr inbounds nuw %struct.SBufExt, ptr %9, i32 0, i32 3
  %11 = getelementptr inbounds nuw %struct.MRef, ptr %10, i32 0, i32 0
  store i64 %8, ptr %11, align 8, !tbaa !24
  ret void
}

; Function Attrs: alwaysinline nounwind uwtable
define internal void @setudataV(ptr noundef %0, ptr noundef %1, ptr noundef %2) #3 {
  %4 = alloca ptr, align 8
  %5 = alloca ptr, align 8
  %6 = alloca ptr, align 8
  store ptr %0, ptr %4, align 8, !tbaa !4
  store ptr %1, ptr %5, align 8, !tbaa !38
  store ptr %2, ptr %6, align 8, !tbaa !80
  %7 = load ptr, ptr %4, align 8, !tbaa !4
  %8 = load ptr, ptr %5, align 8, !tbaa !38
  %9 = load ptr, ptr %6, align 8, !tbaa !80
  call void @setgcV(ptr noundef %7, ptr noundef %8, ptr noundef %9, i32 noundef -13)
  ret void
}

; Function Attrs: nounwind uwtable
define internal i32 @lj_cf_buffer_new(ptr noundef %0) #0 {
  %2 = alloca ptr, align 8
  %3 = alloca i32, align 4
  %4 = alloca i32, align 4
  %5 = alloca ptr, align 8
  %6 = alloca ptr, align 8
  %7 = alloca ptr, align 8
  %8 = alloca ptr, align 8
  %9 = alloca ptr, align 8
  %10 = alloca ptr, align 8
  %11 = alloca ptr, align 8
  %12 = alloca ptr, align 8
  store ptr %0, ptr %2, align 8, !tbaa !4
  call void @llvm.lifetime.start.p0(i64 4, ptr %3) #8
  store i32 0, ptr %3, align 4, !tbaa !19
  call void @llvm.lifetime.start.p0(i64 4, ptr %4) #8
  store i32 1, ptr %4, align 4, !tbaa !19
  call void @llvm.lifetime.start.p0(i64 8, ptr %5) #8
  call void @llvm.lifetime.start.p0(i64 8, ptr %6) #8
  store ptr null, ptr %6, align 8, !tbaa !79
  call void @llvm.lifetime.start.p0(i64 8, ptr %7) #8
  store ptr null, ptr %7, align 8, !tbaa !79
  call void @llvm.lifetime.start.p0(i64 8, ptr %8) #8
  call void @llvm.lifetime.start.p0(i64 8, ptr %9) #8
  %13 = load ptr, ptr %2, align 8, !tbaa !4
  %14 = getelementptr inbounds nuw %struct.lua_State, ptr %13, i32 0, i32 7
  %15 = load ptr, ptr %14, align 8, !tbaa !11
  %16 = load ptr, ptr %2, align 8, !tbaa !4
  %17 = getelementptr inbounds nuw %struct.lua_State, ptr %16, i32 0, i32 8
  %18 = load ptr, ptr %17, align 8, !tbaa !18
  %19 = icmp ult ptr %15, %18
  br i1 %19, label %20, label %38

20:                                               ; preds = %1
  %21 = load ptr, ptr %2, align 8, !tbaa !4
  %22 = getelementptr inbounds nuw %struct.lua_State, ptr %21, i32 0, i32 7
  %23 = load ptr, ptr %22, align 8, !tbaa !11
  %24 = load i64, ptr %23, align 8, !tbaa !26
  %25 = ashr i64 %24, 47
  %26 = trunc i64 %25 to i32
  %27 = icmp eq i32 %26, -12
  br i1 %27, label %38, label %28

28:                                               ; preds = %20
  store i32 2, ptr %4, align 4, !tbaa !19
  %29 = load ptr, ptr %2, align 8, !tbaa !4
  %30 = getelementptr inbounds nuw %struct.lua_State, ptr %29, i32 0, i32 7
  %31 = load ptr, ptr %30, align 8, !tbaa !11
  %32 = load i64, ptr %31, align 8, !tbaa !26
  %33 = icmp eq i64 %32, -1
  br i1 %33, label %37, label %34

34:                                               ; preds = %28
  %35 = load ptr, ptr %2, align 8, !tbaa !4
  %36 = call i32 @lj_lib_checkintrange(ptr noundef %35, i32 noundef 1, i32 noundef 0, i32 noundef 2147483392)
  store i32 %36, ptr %3, align 4, !tbaa !19
  br label %37

37:                                               ; preds = %34, %28
  br label %38

38:                                               ; preds = %37, %20, %1
  %39 = load ptr, ptr %2, align 8, !tbaa !4
  %40 = getelementptr inbounds nuw %struct.lua_State, ptr %39, i32 0, i32 7
  %41 = load ptr, ptr %40, align 8, !tbaa !11
  %42 = load i32, ptr %4, align 4, !tbaa !19
  %43 = sext i32 %42 to i64
  %44 = getelementptr inbounds %union.TValue, ptr %41, i64 %43
  %45 = getelementptr inbounds %union.TValue, ptr %44, i64 -1
  %46 = load ptr, ptr %2, align 8, !tbaa !4
  %47 = getelementptr inbounds nuw %struct.lua_State, ptr %46, i32 0, i32 8
  %48 = load ptr, ptr %47, align 8, !tbaa !18
  %49 = icmp ult ptr %45, %48
  br i1 %49, label %50, label %96

50:                                               ; preds = %38
  call void @llvm.lifetime.start.p0(i64 8, ptr %10) #8
  %51 = load ptr, ptr %2, align 8, !tbaa !4
  %52 = load i32, ptr %4, align 4, !tbaa !19
  %53 = call ptr @lj_lib_checktab(ptr noundef %51, i32 noundef %52)
  store ptr %53, ptr %10, align 8, !tbaa !79
  call void @llvm.lifetime.start.p0(i64 8, ptr %11) #8
  call void @llvm.lifetime.start.p0(i64 8, ptr %12) #8
  %54 = load ptr, ptr %10, align 8, !tbaa !79
  %55 = load ptr, ptr %2, align 8, !tbaa !4
  %56 = call ptr @lj_str_new(ptr noundef %55, ptr noundef @.str.7, i64 noundef 4)
  %57 = call ptr @lj_tab_getstr(ptr noundef %54, ptr noundef %56)
  store ptr %57, ptr %11, align 8, !tbaa !38
  %58 = load ptr, ptr %11, align 8, !tbaa !38
  %59 = icmp ne ptr %58, null
  br i1 %59, label %60, label %74

60:                                               ; preds = %50
  %61 = load ptr, ptr %11, align 8, !tbaa !38
  %62 = load i64, ptr %61, align 8, !tbaa !26
  %63 = ashr i64 %62, 47
  %64 = trunc i64 %63 to i32
  %65 = icmp eq i32 %64, -12
  br i1 %65, label %66, label %74

66:                                               ; preds = %60
  %67 = load ptr, ptr %11, align 8, !tbaa !38
  %68 = getelementptr inbounds nuw %struct.GCRef, ptr %67, i32 0, i32 0
  %69 = load i64, ptr %68, align 8, !tbaa !26
  %70 = and i64 %69, 140737488355327
  %71 = inttoptr i64 %70 to ptr
  store ptr %71, ptr %6, align 8, !tbaa !79
  %72 = load ptr, ptr %2, align 8, !tbaa !4
  %73 = load ptr, ptr %6, align 8, !tbaa !79
  call void @lj_serialize_dict_prep_str(ptr noundef %72, ptr noundef %73)
  br label %74

74:                                               ; preds = %66, %60, %50
  %75 = load ptr, ptr %10, align 8, !tbaa !79
  %76 = load ptr, ptr %2, align 8, !tbaa !4
  %77 = call ptr @lj_str_new(ptr noundef %76, ptr noundef @.str.8, i64 noundef 9)
  %78 = call ptr @lj_tab_getstr(ptr noundef %75, ptr noundef %77)
  store ptr %78, ptr %12, align 8, !tbaa !38
  %79 = load ptr, ptr %12, align 8, !tbaa !38
  %80 = icmp ne ptr %79, null
  br i1 %80, label %81, label %95

81:                                               ; preds = %74
  %82 = load ptr, ptr %12, align 8, !tbaa !38
  %83 = load i64, ptr %82, align 8, !tbaa !26
  %84 = ashr i64 %83, 47
  %85 = trunc i64 %84 to i32
  %86 = icmp eq i32 %85, -12
  br i1 %86, label %87, label %95

87:                                               ; preds = %81
  %88 = load ptr, ptr %12, align 8, !tbaa !38
  %89 = getelementptr inbounds nuw %struct.GCRef, ptr %88, i32 0, i32 0
  %90 = load i64, ptr %89, align 8, !tbaa !26
  %91 = and i64 %90, 140737488355327
  %92 = inttoptr i64 %91 to ptr
  store ptr %92, ptr %7, align 8, !tbaa !79
  %93 = load ptr, ptr %2, align 8, !tbaa !4
  %94 = load ptr, ptr %7, align 8, !tbaa !79
  call void @lj_serialize_dict_prep_mt(ptr noundef %93, ptr noundef %94)
  br label %95

95:                                               ; preds = %87, %81, %74
  call void @llvm.lifetime.end.p0(i64 8, ptr %12) #8
  call void @llvm.lifetime.end.p0(i64 8, ptr %11) #8
  call void @llvm.lifetime.end.p0(i64 8, ptr %10) #8
  br label %96

96:                                               ; preds = %95, %38
  %97 = load ptr, ptr %2, align 8, !tbaa !4
  %98 = getelementptr inbounds nuw %struct.lua_State, ptr %97, i32 0, i32 7
  %99 = load ptr, ptr %98, align 8, !tbaa !11
  %100 = getelementptr inbounds %union.TValue, ptr %99, i64 -2
  %101 = getelementptr inbounds nuw %struct.GCRef, ptr %100, i32 0, i32 0
  %102 = load i64, ptr %101, align 8, !tbaa !26
  %103 = and i64 %102, 140737488355327
  %104 = inttoptr i64 %103 to ptr
  %105 = getelementptr inbounds nuw %struct.GCfuncC, ptr %104, i32 0, i32 5
  %106 = getelementptr inbounds nuw %struct.GCRef, ptr %105, i32 0, i32 0
  %107 = load i64, ptr %106, align 8, !tbaa !26
  %108 = inttoptr i64 %107 to ptr
  store ptr %108, ptr %5, align 8, !tbaa !79
  %109 = load ptr, ptr %2, align 8, !tbaa !4
  %110 = load ptr, ptr %5, align 8, !tbaa !79
  %111 = call ptr @lj_udata_new(ptr noundef %109, i32 noundef 72, ptr noundef %110)
  store ptr %111, ptr %8, align 8, !tbaa !80
  %112 = load ptr, ptr %8, align 8, !tbaa !80
  %113 = getelementptr inbounds nuw %struct.GCudata, ptr %112, i32 0, i32 3
  store i8 3, ptr %113, align 2, !tbaa !82
  %114 = load ptr, ptr %5, align 8, !tbaa !79
  %115 = ptrtoint ptr %114 to i64
  %116 = load ptr, ptr %8, align 8, !tbaa !80
  %117 = getelementptr inbounds nuw %struct.GCudata, ptr %116, i32 0, i32 7
  %118 = getelementptr inbounds nuw %struct.GCRef, ptr %117, i32 0, i32 0
  store i64 %115, ptr %118, align 8, !tbaa !84
  %119 = load ptr, ptr %2, align 8, !tbaa !4
  %120 = load ptr, ptr %2, align 8, !tbaa !4
  %121 = getelementptr inbounds nuw %struct.lua_State, ptr %120, i32 0, i32 8
  %122 = load ptr, ptr %121, align 8, !tbaa !18
  %123 = getelementptr inbounds nuw %union.TValue, ptr %122, i32 1
  store ptr %123, ptr %121, align 8, !tbaa !18
  %124 = load ptr, ptr %8, align 8, !tbaa !80
  call void @setudataV(ptr noundef %119, ptr noundef %122, ptr noundef %124)
  %125 = load ptr, ptr %8, align 8, !tbaa !80
  %126 = getelementptr inbounds %struct.GCudata, ptr %125, i64 1
  store ptr %126, ptr %9, align 8, !tbaa !9
  %127 = load ptr, ptr %2, align 8, !tbaa !4
  %128 = load ptr, ptr %9, align 8, !tbaa !9
  call void @lj_bufx_init(ptr noundef %127, ptr noundef %128)
  %129 = load ptr, ptr %6, align 8, !tbaa !79
  %130 = ptrtoint ptr %129 to i64
  %131 = load ptr, ptr %9, align 8, !tbaa !9
  %132 = getelementptr inbounds nuw %struct.SBufExt, ptr %131, i32 0, i32 6
  %133 = getelementptr inbounds nuw %struct.GCRef, ptr %132, i32 0, i32 0
  store i64 %130, ptr %133, align 8, !tbaa !85
  %134 = load ptr, ptr %7, align 8, !tbaa !79
  %135 = ptrtoint ptr %134 to i64
  %136 = load ptr, ptr %9, align 8, !tbaa !9
  %137 = getelementptr inbounds nuw %struct.SBufExt, ptr %136, i32 0, i32 7
  %138 = getelementptr inbounds nuw %struct.GCRef, ptr %137, i32 0, i32 0
  store i64 %135, ptr %138, align 8, !tbaa !86
  %139 = load i32, ptr %3, align 4, !tbaa !19
  %140 = icmp ugt i32 %139, 0
  br i1 %140, label %141, label %145

141:                                              ; preds = %96
  %142 = load ptr, ptr %9, align 8, !tbaa !9
  %143 = load i32, ptr %3, align 4, !tbaa !19
  %144 = call ptr @lj_buf_need2(ptr noundef %142, i32 noundef %143)
  br label %145

145:                                              ; preds = %141, %96
  %146 = load ptr, ptr %2, align 8, !tbaa !4
  %147 = getelementptr inbounds nuw %struct.lua_State, ptr %146, i32 0, i32 5
  %148 = getelementptr inbounds nuw %struct.MRef, ptr %147, i32 0, i32 0
  %149 = load i64, ptr %148, align 8, !tbaa !36
  %150 = inttoptr i64 %149 to ptr
  %151 = getelementptr inbounds nuw %struct.global_State, ptr %150, i32 0, i32 2
  %152 = getelementptr inbounds nuw %struct.GCState, ptr %151, i32 0, i32 0
  %153 = load i64, ptr %152, align 8, !tbaa !41
  %154 = load ptr, ptr %2, align 8, !tbaa !4
  %155 = getelementptr inbounds nuw %struct.lua_State, ptr %154, i32 0, i32 5
  %156 = getelementptr inbounds nuw %struct.MRef, ptr %155, i32 0, i32 0
  %157 = load i64, ptr %156, align 8, !tbaa !36
  %158 = inttoptr i64 %157 to ptr
  %159 = getelementptr inbounds nuw %struct.global_State, ptr %158, i32 0, i32 2
  %160 = getelementptr inbounds nuw %struct.GCState, ptr %159, i32 0, i32 1
  %161 = load i64, ptr %160, align 8, !tbaa !50
  %162 = icmp uge i64 %153, %161
  %163 = xor i1 %162, true
  %164 = xor i1 %163, true
  %165 = zext i1 %164 to i32
  %166 = sext i32 %165 to i64
  %167 = call i64 @llvm.expect.i64(i64 %166, i64 0)
  %168 = icmp ne i64 %167, 0
  br i1 %168, label %169, label %172

169:                                              ; preds = %145
  %170 = load ptr, ptr %2, align 8, !tbaa !4
  %171 = call i32 @lj_gc_step(ptr noundef %170)
  br label %172

172:                                              ; preds = %169, %145
  call void @llvm.lifetime.end.p0(i64 8, ptr %9) #8
  call void @llvm.lifetime.end.p0(i64 8, ptr %8) #8
  call void @llvm.lifetime.end.p0(i64 8, ptr %7) #8
  call void @llvm.lifetime.end.p0(i64 8, ptr %6) #8
  call void @llvm.lifetime.end.p0(i64 8, ptr %5) #8
  call void @llvm.lifetime.end.p0(i64 4, ptr %4) #8
  call void @llvm.lifetime.end.p0(i64 4, ptr %3) #8
  ret i32 1
}