; Function Attrs: nounwind uwtable
define internal noundef i32 @lj_cf_buffer_new(ptr noundef %0) #0 {
  %2 = getelementptr inbounds nuw i8, ptr %0, i64 32
  %3 = load ptr, ptr %2, align 8, !tbaa !4
  %4 = getelementptr inbounds nuw i8, ptr %0, i64 40
  %5 = load ptr, ptr %4, align 8, !tbaa !14
  %6 = icmp ult ptr %3, %5
  br i1 %6, label %7, label %14

7:                                                ; preds = %1
  %8 = load i64, ptr %3, align 8, !tbaa !15
  %.mask = and i64 %8, -140737488355328
  %9 = icmp eq i64 %.mask, -1688849860263936
  br i1 %9, label %14, label %10

10:                                               ; preds = %7
  %11 = icmp eq i64 %8, -1
  br i1 %11, label %14, label %12

12:                                               ; preds = %10
  %13 = tail call i32 @lj_lib_checkintrange(ptr noundef nonnull %0, i32 noundef 1, i32 noundef 0, i32 noundef 2147483392) #6
  %.pre = load ptr, ptr %2, align 8, !tbaa !4
  %.pre57 = load ptr, ptr %4, align 8, !tbaa !14
  br label %14

14:                                               ; preds = %10, %12, %7, %1
  %15 = phi ptr [ %5, %7 ], [ %5, %10 ], [ %.pre57, %12 ], [ %5, %1 ]
  %16 = phi ptr [ %3, %7 ], [ %3, %10 ], [ %.pre, %12 ], [ %3, %1 ]
  %.045 = phi i32 [ 1, %7 ], [ 2, %10 ], [ 2, %12 ], [ 1, %1 ]
  %.0 = phi i32 [ 0, %7 ], [ 0, %10 ], [ %13, %12 ], [ 0, %1 ]
  %17 = zext nneg i32 %.045 to i64
  %18 = getelementptr inbounds nuw %union.TValue, ptr %16, i64 %17
  %19 = getelementptr inbounds i8, ptr %18, i64 -8
  %20 = icmp ult ptr %19, %15
  br i1 %20, label %21, label %40

21:                                               ; preds = %14
  %22 = tail call ptr @lj_lib_checktab(ptr noundef nonnull %0, i32 noundef %.045) #6
  %23 = tail call ptr @lj_str_new(ptr noundef nonnull %0, ptr noundef nonnull @.str.7, i64 noundef 4) #6
  %24 = tail call ptr @lj_tab_getstr(ptr noundef %22, ptr noundef %23) #6
  %.not = icmp eq ptr %24, null
  br i1 %.not, label %31, label %25

25:                                               ; preds = %21
  %26 = load i64, ptr %24, align 8, !tbaa !15
  %.mask52 = and i64 %26, -140737488355328
  %27 = icmp eq i64 %.mask52, -1688849860263936
  br i1 %27, label %28, label %31

28:                                               ; preds = %25
  %29 = and i64 %26, 140737488355327
  %30 = inttoptr i64 %29 to ptr
  tail call void @lj_serialize_dict_prep_str(ptr noundef nonnull %0, ptr noundef %30) #6
  br label %31

31:                                               ; preds = %28, %25, %21
  %.1 = phi i64 [ %29, %28 ], [ 0, %25 ], [ 0, %21 ]
  %32 = tail call ptr @lj_str_new(ptr noundef nonnull %0, ptr noundef nonnull @.str.8, i64 noundef 9) #6
  %33 = tail call ptr @lj_tab_getstr(ptr noundef %22, ptr noundef %32) #6
  %.not53 = icmp eq ptr %33, null
  br i1 %.not53, label %40, label %34

34:                                               ; preds = %31
  %35 = load i64, ptr %33, align 8, !tbaa !15
  %.mask54 = and i64 %35, -140737488355328
  %36 = icmp eq i64 %.mask54, -1688849860263936
  br i1 %36, label %37, label %40

37:                                               ; preds = %34
  %38 = and i64 %35, 140737488355327
  %39 = inttoptr i64 %38 to ptr
  tail call void @lj_serialize_dict_prep_mt(ptr noundef nonnull %0, ptr noundef %39) #6
  br label %40

40:                                               ; preds = %31, %34, %37, %14
  %.047 = phi i64 [ 0, %14 ], [ %38, %37 ], [ 0, %34 ], [ 0, %31 ]
  %.046 = phi i64 [ 0, %14 ], [ %.1, %37 ], [ %.1, %34 ], [ %.1, %31 ]
  %41 = load ptr, ptr %2, align 8, !tbaa !4
  %42 = getelementptr inbounds i8, ptr %41, i64 -16
  %43 = load i64, ptr %42, align 8, !tbaa !15
  %44 = and i64 %43, 140737488355327
  %45 = inttoptr i64 %44 to ptr
  %46 = getelementptr inbounds nuw i8, ptr %45, i64 16
  %47 = load i64, ptr %46, align 8, !tbaa !15
  %48 = inttoptr i64 %47 to ptr
  %49 = tail call ptr @lj_udata_new(ptr noundef nonnull %0, i32 noundef 72, ptr noundef %48) #6
  %50 = getelementptr inbounds nuw i8, ptr %49, i64 10
  store i8 3, ptr %50, align 2, !tbaa !63
  %51 = getelementptr inbounds nuw i8, ptr %49, i64 32
  store i64 %47, ptr %51, align 8, !tbaa !65
  %52 = load ptr, ptr %4, align 8, !tbaa !14
  %53 = getelementptr inbounds nuw i8, ptr %52, i64 8
  store ptr %53, ptr %4, align 8, !tbaa !14
  %54 = ptrtoint ptr %49 to i64
  %55 = or i64 %54, -1829587348619264
  store i64 %55, ptr %52, align 8, !tbaa !15
  %56 = getelementptr inbounds nuw i8, ptr %49, i64 48
  tail call void @llvm.memset.p0.i64(ptr noundef nonnull align 8 dereferenceable(72) %56, i8 0, i64 72, i1 false)
  %57 = ptrtoint ptr %0 to i64
  %58 = add i64 %57, 1
  %59 = getelementptr inbounds nuw i8, ptr %49, i64 72
  store i64 %58, ptr %59, align 8, !tbaa !16
  %60 = getelementptr inbounds nuw i8, ptr %49, i64 96
  store i64 %.046, ptr %60, align 8, !tbaa !66
  %61 = getelementptr inbounds nuw i8, ptr %49, i64 104
  store i64 %.047, ptr %61, align 8, !tbaa !67
  %.not55 = icmp eq i32 %.0, 0
  br i1 %.not55, label %64, label %62

62:                                               ; preds = %40
  %63 = tail call ptr @lj_buf_need2(ptr noundef nonnull %56, i32 noundef %.0) #6
  br label %64

64:                                               ; preds = %62, %40
  %65 = getelementptr inbounds nuw i8, ptr %0, i64 16
  %66 = load i64, ptr %65, align 8, !tbaa !19
  %67 = inttoptr i64 %66 to ptr
  %68 = getelementptr inbounds nuw i8, ptr %67, i64 16
  %69 = load i64, ptr %68, align 8, !tbaa !22
  %70 = getelementptr inbounds nuw i8, ptr %67, i64 24
  %71 = load i64, ptr %70, align 8, !tbaa !51
  %.not56 = icmp ult i64 %69, %71
  br i1 %.not56, label %74, label %72, !prof !52

72:                                               ; preds = %64
  %73 = tail call i32 @lj_gc_step(ptr noundef nonnull %0) #6
  br label %74

74:                                               ; preds = %72, %64
  ret i32 1
}